target datalayout = "e-m:e-p270:32:32-p271:32:32-p272:64:64-i64:64-i128:128-f80:128-n8:16:32:64-S128"
target triple = "x86_64-pc-linux-gnu"

@H5P_CLS_DATASET_XFER_ID_g = external global i64, align 8
@H5_libinit_g = external global i8, align 1
@H5_libterm_g = external global i8, align 1
@.str.1 = private unnamed_addr constant [101 x i8] c"generated/home/dtcxzyw/WorkSpace/Projects/compilers/llvm-opt-benchmark/bench/hdf5/hdf5/src/H5Pdxpl.c\00", align 1
@__func__.H5Pset_data_transform = private unnamed_addr constant [22 x i8] c"H5Pset_data_transform\00", align 1
@H5E_FUNC_g = external global i64, align 8
@H5E_CANTINIT_g = external global i64, align 8
@.str.2 = private unnamed_addr constant [30 x i8] c"library initialization failed\00", align 1
@H5E_CANTSET_g = external global i64, align 8
@.str.3 = private unnamed_addr constant [22 x i8] c"can't set API context\00", align 1
@H5E_ARGS_g = external global i64, align 8
@H5E_BADVALUE_g = external global i64, align 8
@.str.4 = private unnamed_addr constant [26 x i8] c"expression cannot be NULL\00", align 1
@H5E_ID_g = external global i64, align 8
@H5E_BADID_g = external global i64, align 8
@.str.5 = private unnamed_addr constant [25 x i8] c"can't find object for ID\00", align 1
@.str.6 = private unnamed_addr constant [15 x i8] c"data_transform\00", align 1
@H5E_PLIST_g = external global i64, align 8
@H5E_CANTGET_g = external global i64, align 8
@.str.7 = private unnamed_addr constant [40 x i8] c"error getting data transform expression\00", align 1
@H5E_CLOSEERROR_g = external global i64, align 8
@.str.8 = private unnamed_addr constant [44 x i8] c"unable to release data transform expression\00", align 1
@H5E_NOSPACE_g = external global i64, align 8
@.str.9 = private unnamed_addr constant [37 x i8] c"unable to create data transform info\00", align 1
@.str.10 = private unnamed_addr constant [40 x i8] c"Error setting data transform expression\00", align 1

; Function Attrs: nounwind uwtable
define i32 @H5Pset_data_transform(i64 noundef %0, ptr noundef %1) #0 {
  %3 = alloca i64, align 8
  %4 = alloca ptr, align 8
  %5 = alloca ptr, align 8
  %6 = alloca ptr, align 8
  %7 = alloca i32, align 4
  %8 = alloca i8, align 1
  %9 = alloca i8, align 1
  store i64 %0, ptr %3, align 8
  store ptr %1, ptr %4, align 8
  store ptr null, ptr %6, align 8
  store i32 0, ptr %7, align 4
  store i8 0, ptr %8, align 1
  store i8 0, ptr %9, align 1
  %10 = load i8, ptr @H5_libinit_g, align 1
  %11 = trunc i8 %10 to i1
  br i1 %11, label %16, label %12

12:                                               ; preds = %2
  %13 = load i8, ptr @H5_libterm_g, align 1
  %14 = trunc i8 %13 to i1
  %15 = xor i1 %14, true
  br label %16

16:                                               ; preds = %12, %2
  %17 = phi i1 [ false, %2 ], [ %15, %12 ]
  %18 = xor i1 %17, true
  %19 = xor i1 %18, true
  %20 = zext i1 %19 to i32
  %21 = sext i32 %20 to i64
  %22 = icmp ne i64 %21, 0
  br i1 %22, label %23, label %47

23:                                               ; preds = %16
  %24 = call i32 @H5_init_library()
  %25 = icmp slt i32 %24, 0
  %26 = xor i1 %25, true
  %27 = xor i1 %26, true
  %28 = zext i1 %27 to i32
  %29 = sext i32 %28 to i64
  %30 = icmp ne i64 %29, 0
  br i1 %30, label %31, label %46

31:                                               ; preds = %23
  br label %32

32:                                               ; preds = %31
  br label %33

33:                                               ; preds = %32
  br label %34

34:                                               ; preds = %33
  %35 = load i64, ptr @H5E_FUNC_g, align 8
  %36 = load i64, ptr @H5E_CANTINIT_g, align 8
  %37 = call i32 (ptr, ptr, i32, i64, i64, ptr, ...) @H5E_printf_stack(ptr noundef @.str.1, ptr noundef @__func__.H5Pset_data_transform, i32 noundef 970, i64 noundef %35, i64 noundef %36, ptr noundef @.str.2)
  br label %38

38:                                               ; preds = %34
  store i8 1, ptr %9, align 1
  %39 = load i8, ptr %9, align 1
  %40 = trunc i8 %39 to i1
  %41 = zext i1 %40 to i8
  store i8 %41, ptr %9, align 1
  br label %42

42:                                               ; preds = %38
  br label %43

43:                                               ; preds = %42
  store i32 -1, ptr %7, align 4
  br label %187

44:                                               ; No predecessors!
  br label %45

45:                                               ; preds = %44
  br label %46

46:                                               ; preds = %45, %23
  br label %47

47:                                               ; preds = %46, %16
  %48 = call i32 @H5CX_push()
  %49 = icmp slt i32 %48, 0
  %50 = xor i1 %49, true
  %51 = xor i1 %50, true
  %52 = zext i1 %51 to i32
  %53 = sext i32 %52 to i64
  %54 = icmp ne i64 %53, 0
  br i1 %54, label %55, label %70

55:                                               ; preds = %47
  br label %56

56:                                               ; preds = %55
  br label %57

57:                                               ; preds = %56
  br label %58

58:                                               ; preds = %57
  %59 = load i64, ptr @H5E_FUNC_g, align 8
  %60 = load i64, ptr @H5E_CANTSET_g, align 8
  %61 = call i32 (ptr, ptr, i32, i64, i64, ptr, ...) @H5E_printf_stack(ptr noundef @.str.1, ptr noundef @__func__.H5Pset_data_transform, i32 noundef 970, i64 noundef %59, i64 noundef %60, ptr noundef @.str.3)
  br label %62

62:                                               ; preds = %58
  store i8 1, ptr %9, align 1
  %63 = load i8, ptr %9, align 1
  %64 = trunc i8 %63 to i1
  %65 = zext i1 %64 to i8
  store i8 %65, ptr %9, align 1
  br label %66

66:                                               ; preds = %62
  br label %67

67:                                               ; preds = %66
  store i32 -1, ptr %7, align 4
  br label %187

68:                                               ; No predecessors!
  br label %69

69:                                               ; preds = %68
  br label %71

70:                                               ; preds = %47
  store i8 1, ptr %8, align 1
  br label %71

71:                                               ; preds = %70, %69
  %72 = call i32 @H5E_clear_stack()
  %73 = load ptr, ptr %4, align 8
  %74 = icmp eq ptr %73, null
  br i1 %74, label %75, label %90

75:                                               ; preds = %71
  br label %76

76:                                               ; preds = %75
  br label %77

77:                                               ; preds = %76
  br label %78

78:                                               ; preds = %77
  %79 = load i64, ptr @H5E_ARGS_g, align 8
  %80 = load i64, ptr @H5E_BADVALUE_g, align 8
  %81 = call i32 (ptr, ptr, i32, i64, i64, ptr, ...) @H5E_printf_stack(ptr noundef @.str.1, ptr noundef @__func__.H5Pset_data_transform, i32 noundef 974, i64 noundef %79, i64 noundef %80, ptr noundef @.str.4)
  br label %82

82:                                               ; preds = %78
  store i8 1, ptr %9, align 1
  %83 = load i8, ptr %9, align 1
  %84 = trunc i8 %83 to i1
  %85 = zext i1 %84 to i8
  store i8 %85, ptr %9, align 1
  br label %86

86:                                               ; preds = %82
  br label %87

87:                                               ; preds = %86
  store i32 -1, ptr %7, align 4
  br label %187

88:                                               ; No predecessors!
  br label %89

89:                                               ; preds = %88
  br label %90

90:                                               ; preds = %89, %71
  %91 = load i64, ptr %3, align 8
  %92 = load i64, ptr @H5P_CLS_DATASET_XFER_ID_g, align 8
  %93 = call ptr @H5P_object_verify(i64 noundef %91, i64 noundef %92)
  store ptr %93, ptr %5, align 8
  %94 = icmp eq ptr null, %93
  br i1 %94, label %95, label %110

95:                                               ; preds = %90
  br label %96

96:                                               ; preds = %95
  br label %97

97:                                               ; preds = %96
  br label %98

98:                                               ; preds = %97
  %99 = load i64, ptr @H5E_ID_g, align 8
  %100 = load i64, ptr @H5E_BADID_g, align 8
  %101 = call i32 (ptr, ptr, i32, i64, i64, ptr, ...) @H5E_printf_stack(ptr noundef @.str.1, ptr noundef @__func__.H5Pset_data_transform, i32 noundef 978, i64 noundef %99, i64 noundef %100, ptr noundef @.str.5)
  br label %102

102:                                              ; preds = %98
  store i8 1, ptr %9, align 1
  %103 = load i8, ptr %9, align 1
  %104 = trunc i8 %103 to i1
  %105 = zext i1 %104 to i8
  store i8 %105, ptr %9, align 1
  br label %106

106:                                              ; preds = %102
  br label %107

107:                                              ; preds = %106
  store i32 -1, ptr %7, align 4
  br label %187

108:                                              ; No predecessors!
  br label %109

109:                                              ; preds = %108
  br label %110

110:                                              ; preds = %109, %90
  %111 = load ptr, ptr %5, align 8
  %112 = call i32 @H5P_peek(ptr noundef %111, ptr noundef @.str.6, ptr noundef %6)
  %113 = icmp slt i32 %112, 0
  br i1 %113, label %114, label %129

114:                                              ; preds = %110
  br label %115

115:                                              ; preds = %114
  br label %116

116:                                              ; preds = %115
  br label %117

117:                                              ; preds = %116
  %118 = load i64, ptr @H5E_PLIST_g, align 8
  %119 = load i64, ptr @H5E_CANTGET_g, align 8
  %120 = call i32 (ptr, ptr, i32, i64, i64, ptr, ...) @H5E_printf_stack(ptr noundef @.str.1, ptr noundef @__func__.H5Pset_data_transform, i32 noundef 982, i64 noundef %118, i64 noundef %119, ptr noundef @.str.7)
  br label %121

121:                                              ; preds = %117
  store i8 1, ptr %9, align 1
  %122 = load i8, ptr %9, align 1
  %123 = trunc i8 %122 to i1
  %124 = zext i1 %123 to i8
  store i8 %124, ptr %9, align 1
  br label %125

125:                                              ; preds = %121
  br label %126

126:                                              ; preds = %125
  store i32 -1, ptr %7, align 4
  br label %187

127:                                              ; No predecessors!
  br label %128

128:                                              ; preds = %127
  br label %129

129:                                              ; preds = %128, %110
  %130 = load ptr, ptr %6, align 8
  %131 = call i32 @H5Z_xform_destroy(ptr noundef %130)
  %132 = icmp slt i32 %131, 0
  br i1 %132, label %133, label %148

133:                                              ; preds = %129
  br label %134

134:                                              ; preds = %133
  br label %135

135:                                              ; preds = %134
  br label %136

136:                                              ; preds = %135
  %137 = load i64, ptr @H5E_PLIST_g, align 8
  %138 = load i64, ptr @H5E_CLOSEERROR_g, align 8
  %139 = call i32 (ptr, ptr, i32, i64, i64, ptr, ...) @H5E_printf_stack(ptr noundef @.str.1, ptr noundef @__func__.H5Pset_data_transform, i32 noundef 986, i64 noundef %137, i64 noundef %138, ptr noundef @.str.8)
  br label %140

140:                                              ; preds = %136
  store i8 1, ptr %9, align 1
  %141 = load i8, ptr %9, align 1
  %142 = trunc i8 %141 to i1
  %143 = zext i1 %142 to i8
  store i8 %143, ptr %9, align 1
  br label %144

144:                                              ; preds = %140
  br label %145

145:                                              ; preds = %144
  store i32 -1, ptr %7, align 4
  br label %187

146:                                              ; No predecessors!
  br label %147

147:                                              ; preds = %146
  br label %148

148:                                              ; preds = %147, %129
  %149 = load ptr, ptr %4, align 8
  %150 = call ptr @H5Z_xform_create(ptr noundef %149)
  store ptr %150, ptr %6, align 8
  %151 = icmp eq ptr null, %150
  br i1 %151, label %152, label %167

152:                                              ; preds = %148
  br label %153

153:                                              ; preds = %152
  br label %154

154:                                              ; preds = %153
  br label %155

155:                                              ; preds = %154
  %156 = load i64, ptr @H5E_PLIST_g, align 8
  %157 = load i64, ptr @H5E_NOSPACE_g, align 8
  %158 = call i32 (ptr, ptr, i32, i64, i64, ptr, ...) @H5E_printf_stack(ptr noundef @.str.1, ptr noundef @__func__.H5Pset_data_transform, i32 noundef 990, i64 noundef %156, i64 noundef %157, ptr noundef @.str.9)
  br label %159

159:                                              ; preds = %155
  store i8 1, ptr %9, align 1
  %160 = load i8, ptr %9, align 1
  %161 = trunc i8 %160 to i1
  %162 = zext i1 %161 to i8
  store i8 %162, ptr %9, align 1
  br label %163

163:                                              ; preds = %159
  br label %164

164:                                              ; preds = %163
  store i32 -1, ptr %7, align 4
  br label %187

165:                                              ; No predecessors!
  br label %166

166:                                              ; preds = %165
  br label %167

167:                                              ; preds = %166, %148
  %168 = load ptr, ptr %5, align 8
  %169 = call i32 @H5P_poke(ptr noundef %168, ptr noundef @.str.6, ptr noundef %6)
  %170 = icmp slt i32 %169, 0
  br i1 %170, label %171, label %186

171:                                              ; preds = %167
  br label %172

172:                                              ; preds = %171
  br label %173

173:                                              ; preds = %172
  br label %174

174:                                              ; preds = %173
  %175 = load i64, ptr @H5E_PLIST_g, align 8
  %176 = load i64, ptr @H5E_CANTSET_g, align 8
  %177 = call i32 (ptr, ptr, i32, i64, i64, ptr, ...) @H5E_printf_stack(ptr noundef @.str.1, ptr noundef @__func__.H5Pset_data_transform, i32 noundef 994, i64 noundef %175, i64 noundef %176, ptr noundef @.str.10)
  br label %178

178:                                              ; preds = %174
  store i8 1, ptr %9, align 1
  %179 = load i8, ptr %9, align 1
  %180 = trunc i8 %179 to i1
  %181 = zext i1 %180 to i8
  store i8 %181, ptr %9, align 1
  br label %182

182:                                              ; preds = %178
  br label %183

183:                                              ; preds = %182
  store i32 -1, ptr %7, align 4
  br label %187

184:                                              ; No predecessors!
  br label %185

185:                                              ; preds = %184
  br label %186

186:                                              ; preds = %185, %167
  br label %187

187:                                              ; preds = %186, %183, %164, %145, %126, %107, %87, %67, %43
  %188 = load i32, ptr %7, align 4
  %189 = icmp slt i32 %188, 0
  br i1 %189, label %190, label %211

190:                                              ; preds = %187
  %191 = load ptr, ptr %6, align 8
  %192 = icmp ne ptr %191, null
  br i1 %192, label %193, label %210

193:                                              ; preds = %190
  %194 = load ptr, ptr %6, align 8
  %195 = call i32 @H5Z_xform_destroy(ptr noundef %194)
  %196 = icmp slt i32 %195, 0
  br i1 %196, label %197, label %210

197:                                              ; preds = %193
  br label %198

198:                                              ; preds = %197
  br label %199

199:                                              ; preds = %198
  br label %200

200:                                              ; preds = %199
  %201 = load i64, ptr @H5E_PLIST_g, align 8
  %202 = load i64, ptr @H5E_CLOSEERROR_g, align 8
  %203 = call i32 (ptr, ptr, i32, i64, i64, ptr, ...) @H5E_printf_stack(ptr noundef @.str.1, ptr noundef @__func__.H5Pset_data_transform, i32 noundef 999, i64 noundef %201, i64 noundef %202, ptr noundef @.str.8)
  br label %204

204:                                              ; preds = %200
  store i8 1, ptr %9, align 1
  %205 = load i8, ptr %9, align 1
  %206 = trunc i8 %205 to i1
  %207 = zext i1 %206 to i8
  store i8 %207, ptr %9, align 1
  br label %208

208:                                              ; preds = %204
  store i32 -1, ptr %7, align 4
  br label %209

209:                                              ; preds = %208
  br label %210

210:                                              ; preds = %209, %193, %190
  br label %211

211:                                              ; preds = %210, %187
  %212 = load i8, ptr %8, align 1
  %213 = trunc i8 %212 to i1
  %214 = xor i1 %213, true
  %215 = xor i1 %214, true
  %216 = zext i1 %215 to i32
  %217 = sext i32 %216 to i64
  %218 = icmp ne i64 %217, 0
  br i1 %218, label %219, label %221

219:                                              ; preds = %211
  %220 = call i32 @H5CX_pop(i1 noundef zeroext true)
  store i8 0, ptr %8, align 1
  br label %221

221:                                              ; preds = %219, %211
  %222 = load i8, ptr %9, align 1
  %223 = trunc i8 %222 to i1
  %224 = xor i1 %223, true
  %225 = xor i1 %224, true
  %226 = zext i1 %225 to i32
  %227 = sext i32 %226 to i64
  %228 = icmp ne i64 %227, 0
  br i1 %228, label %229, label %231

229:                                              ; preds = %221
  %230 = call i32 @H5E_dump_api_stack()
  br label %231

231:                                              ; preds = %229, %221
  %232 = load i32, ptr %7, align 4
  ret i32 %232
}