; Function Attrs: nounwind uwtable
define range(i32 -1, 1) i32 @H5Pset_data_transform(i64 noundef %0, ptr noundef %1) local_unnamed_addr #0 {
  %3 = alloca ptr, align 8
  store ptr null, ptr %3, align 8
  %4 = load i8, ptr @H5_libinit_g, align 1
  %5 = trunc i8 %4 to i1
  %6 = load i8, ptr @H5_libterm_g, align 1
  %7 = trunc i8 %6 to i1
  %8 = select i1 %5, i1 true, i1 %7
  br i1 %8, label %16, label %9

9:                                                ; preds = %2
  %10 = tail call i32 @H5_init_library() #8
  %11 = icmp slt i32 %10, 0
  br i1 %11, label %12, label %16

12:                                               ; preds = %9
  %13 = load i64, ptr @H5E_FUNC_g, align 8
  %14 = load i64, ptr @H5E_CANTINIT_g, align 8
  %15 = tail call i32 (ptr, ptr, i32, i64, i64, ptr, ...) @H5E_printf_stack(ptr noundef nonnull @.str.1, ptr noundef nonnull @__func__.H5Pset_data_transform, i32 noundef 970, i64 noundef %13, i64 noundef %14, ptr noundef nonnull @.str.2) #8
  br label %67

16:                                               ; preds = %9, %2
  %17 = tail call i32 @H5CX_push() #8
  %18 = icmp slt i32 %17, 0
  br i1 %18, label %19, label %23

19:                                               ; preds = %16
  %20 = load i64, ptr @H5E_FUNC_g, align 8
  %21 = load i64, ptr @H5E_CANTSET_g, align 8
  %22 = tail call i32 (ptr, ptr, i32, i64, i64, ptr, ...) @H5E_printf_stack(ptr noundef nonnull @.str.1, ptr noundef nonnull @__func__.H5Pset_data_transform, i32 noundef 970, i64 noundef %20, i64 noundef %21, ptr noundef nonnull @.str.3) #8
  br label %67

23:                                               ; preds = %16
  %24 = tail call i32 @H5E_clear_stack() #8
  %25 = icmp eq ptr %1, null
  br i1 %25, label %26, label %30

26:                                               ; preds = %23
  %27 = load i64, ptr @H5E_ARGS_g, align 8
  %28 = load i64, ptr @H5E_BADVALUE_g, align 8
  %29 = tail call i32 (ptr, ptr, i32, i64, i64, ptr, ...) @H5E_printf_stack(ptr noundef nonnull @.str.1, ptr noundef nonnull @__func__.H5Pset_data_transform, i32 noundef 974, i64 noundef %27, i64 noundef %28, ptr noundef nonnull @.str.4) #8
  br label %67

30:                                               ; preds = %23
  %31 = load i64, ptr @H5P_CLS_DATASET_XFER_ID_g, align 8
  %32 = tail call ptr @H5P_object_verify(i64 noundef %0, i64 noundef %31) #8
  %33 = icmp eq ptr %32, null
  br i1 %33, label %34, label %38

34:                                               ; preds = %30
  %35 = load i64, ptr @H5E_ID_g, align 8
  %36 = load i64, ptr @H5E_BADID_g, align 8
  %37 = tail call i32 (ptr, ptr, i32, i64, i64, ptr, ...) @H5E_printf_stack(ptr noundef nonnull @.str.1, ptr noundef nonnull @__func__.H5Pset_data_transform, i32 noundef 978, i64 noundef %35, i64 noundef %36, ptr noundef nonnull @.str.5) #8
  br label %67

38:                                               ; preds = %30
  %39 = call i32 @H5P_peek(ptr noundef nonnull %32, ptr noundef nonnull @.str.6, ptr noundef nonnull %3) #8
  %40 = icmp slt i32 %39, 0
  br i1 %40, label %41, label %45

41:                                               ; preds = %38
  %42 = load i64, ptr @H5E_PLIST_g, align 8
  %43 = load i64, ptr @H5E_CANTGET_g, align 8
  %44 = call i32 (ptr, ptr, i32, i64, i64, ptr, ...) @H5E_printf_stack(ptr noundef nonnull @.str.1, ptr noundef nonnull @__func__.H5Pset_data_transform, i32 noundef 982, i64 noundef %42, i64 noundef %43, ptr noundef nonnull @.str.7) #8
  br label %67

45:                                               ; preds = %38
  %46 = load ptr, ptr %3, align 8
  %47 = call i32 @H5Z_xform_destroy(ptr noundef %46) #8
  %48 = icmp slt i32 %47, 0
  br i1 %48, label %49, label %53

49:                                               ; preds = %45
  %50 = load i64, ptr @H5E_PLIST_g, align 8
  %51 = load i64, ptr @H5E_CLOSEERROR_g, align 8
  %52 = call i32 (ptr, ptr, i32, i64, i64, ptr, ...) @H5E_printf_stack(ptr noundef nonnull @.str.1, ptr noundef nonnull @__func__.H5Pset_data_transform, i32 noundef 986, i64 noundef %50, i64 noundef %51, ptr noundef nonnull @.str.8) #8
  br label %67

53:                                               ; preds = %45
  %54 = call ptr @H5Z_xform_create(ptr noundef nonnull %1) #8
  store ptr %54, ptr %3, align 8
  %55 = icmp eq ptr %54, null
  br i1 %55, label %56, label %60

56:                                               ; preds = %53
  %57 = load i64, ptr @H5E_PLIST_g, align 8
  %58 = load i64, ptr @H5E_NOSPACE_g, align 8
  %59 = call i32 (ptr, ptr, i32, i64, i64, ptr, ...) @H5E_printf_stack(ptr noundef nonnull @.str.1, ptr noundef nonnull @__func__.H5Pset_data_transform, i32 noundef 990, i64 noundef %57, i64 noundef %58, ptr noundef nonnull @.str.9) #8
  br label %67

60:                                               ; preds = %53
  %61 = call i32 @H5P_poke(ptr noundef nonnull %32, ptr noundef nonnull @.str.6, ptr noundef nonnull %3) #8
  %62 = icmp slt i32 %61, 0
  br i1 %62, label %63, label %78

63:                                               ; preds = %60
  %64 = load i64, ptr @H5E_PLIST_g, align 8
  %65 = load i64, ptr @H5E_CANTSET_g, align 8
  %66 = call i32 (ptr, ptr, i32, i64, i64, ptr, ...) @H5E_printf_stack(ptr noundef nonnull @.str.1, ptr noundef nonnull @__func__.H5Pset_data_transform, i32 noundef 994, i64 noundef %64, i64 noundef %65, ptr noundef nonnull @.str.10) #8
  br label %67

67:                                               ; preds = %63, %56, %49, %41, %34, %26, %19, %12
  %.018 = phi i1 [ false, %12 ], [ false, %19 ], [ true, %26 ], [ true, %34 ], [ true, %41 ], [ true, %49 ], [ true, %56 ], [ true, %63 ]
  %68 = load ptr, ptr %3, align 8
  %.not = icmp eq ptr %68, null
  br i1 %.not, label %76, label %69

69:                                               ; preds = %67
  %70 = call i32 @H5Z_xform_destroy(ptr noundef nonnull %68) #8
  %71 = icmp slt i32 %70, 0
  br i1 %71, label %72, label %76

72:                                               ; preds = %69
  %73 = load i64, ptr @H5E_PLIST_g, align 8
  %74 = load i64, ptr @H5E_CLOSEERROR_g, align 8
  %75 = call i32 (ptr, ptr, i32, i64, i64, ptr, ...) @H5E_printf_stack(ptr noundef nonnull @.str.1, ptr noundef nonnull @__func__.H5Pset_data_transform, i32 noundef 999, i64 noundef %73, i64 noundef %74, ptr noundef nonnull @.str.8) #8
  br i1 %.018, label %.thread43, label %.thread37

76:                                               ; preds = %69, %67
  br i1 %.018, label %.thread43, label %.thread37

.thread43:                                        ; preds = %76, %72
  %77 = call i32 @H5CX_pop(i1 noundef zeroext true) #8
  br label %.thread37

78:                                               ; preds = %60
  %79 = call i32 @H5CX_pop(i1 noundef zeroext true) #8
  br label %81

.thread37:                                        ; preds = %72, %76, %.thread43
  %80 = call i32 @H5E_dump_api_stack() #8
  br label %81

81:                                               ; preds = %78, %.thread37
  %.1203340 = phi i32 [ -1, %.thread37 ], [ 0, %78 ]
  ret i32 %.1203340
}